; Function Attrs: mustprogress nounwind uwtable
define dso_local void @_ZN4llvm13StringMapImplC2Ejj(ptr nocapture noundef nonnull writeonly align 8 dereferenceable(24) %0, i32 noundef %1, i32 noundef %2) unnamed_addr #0 align 2 {
  %4 = getelementptr inbounds nuw i8, ptr %0, i64 8
  %5 = getelementptr inbounds nuw i8, ptr %0, i64 20
  tail call void @llvm.memset.p0.i64(ptr noundef nonnull align 8 dereferenceable(16) %0, i8 0, i64 16, i1 false)
  store i32 %2, ptr %5, align 4
  %.not = icmp eq i32 %1, 0
  br i1 %.not, label %30, label %6

6:                                                ; preds = %3
  %7 = getelementptr inbounds nuw i8, ptr %0, i64 16
  %8 = shl i32 %1, 2
  %9 = udiv i32 %8, 3
  %10 = add nuw nsw i32 %9, 1
  %11 = zext nneg i32 %10 to i64
  %12 = lshr i64 %11, 1
  %13 = or i64 %12, %11
  %14 = lshr i64 %13, 2
  %15 = or i64 %14, %13
  %16 = lshr i64 %15, 4
  %17 = or i64 %16, %15
  %18 = lshr i64 %17, 8
  %19 = or i64 %18, %17
  %20 = lshr i64 %19, 16
  %21 = or i64 %20, %19
  store i32 0, ptr %7, align 8
  %22 = add nuw nsw i64 %21, 2
  %23 = tail call noalias ptr @calloc(i64 noundef %22, i64 noundef 12) #10
  %24 = icmp eq ptr %23, null
  br i1 %24, label %25, label %_ZN4llvm13StringMapImpl4initEj.exit

25:                                               ; preds = %6
  tail call void @_ZN4llvm22report_bad_alloc_errorEPKcb(ptr noundef nonnull @.str, i1 noundef zeroext true) #11
  unreachable

_ZN4llvm13StringMapImpl4initEj.exit:              ; preds = %6
  %26 = trunc nuw nsw i64 %21 to i32
  %27 = add nuw i32 %26, 1
  %28 = zext i32 %27 to i64
  %29 = getelementptr inbounds ptr, ptr %23, i64 %28
  store ptr inttoptr (i64 2 to ptr), ptr %29, align 8
  store ptr %23, ptr %0, align 8
  store i32 %27, ptr %4, align 8
  br label %31

30:                                               ; preds = %3
  tail call void @llvm.memset.p0.i64(ptr noundef nonnull align 8 dereferenceable(20) %0, i8 0, i64 20, i1 false)
  br label %31

31:                                               ; preds = %30, %_ZN4llvm13StringMapImpl4initEj.exit
  ret void
}